target datalayout = "e-m:e-p270:32:32-p271:32:32-p272:64:64-i64:64-i128:128-f80:128-n8:16:32:64-S128"
target triple = "x86_64-pc-linux-gnu"

%"struct.pkpy::Type" = type { i16 }
%"struct.pkpy::StrName" = type { i16 }
%class.anon.397 = type { i8 }
%"struct.pkpy::NameDictImpl" = type { %union.anon }
%union.anon = type { %"struct.pkpy::SmallNameDict" }
%"struct.pkpy::SmallNameDict" = type { i8, i16, [8 x %"struct.pkpy::StrName"], [8 x ptr] }
%"struct.pkpy::PyObject" = type { ptr, i8, i8, %"struct.pkpy::Type", ptr }
%"struct.pkpy::MappingProxy" = type { ptr }
%"struct.pkpy::Py_.608" = type { %"struct.pkpy::PyObject", %"struct.pkpy::MappingProxy" }
%"struct.pkpy::LargeNameDict" = type { i8, float, i16, i16, i16, i16, ptr }

@__const._ZN4pkpy18_py_cast__internalIRNS_12MappingProxyELb0EEET_PNS_2VMEPNS_8PyObjectE.const_type = private unnamed_addr constant %"struct.pkpy::Type" { i16 17 }, align 2

; Function Attrs: mustprogress nounwind uwtable
define linkonce_odr noundef zeroext i16 @_ZNK4pkpy13LargeNameDictIPNS_8PyObjectEE4sizeEv(ptr noundef nonnull align 8 dereferenceable(24) %0) #5 comdat align 2 {
  %2 = alloca ptr, align 8
  store ptr %0, ptr %2, align 8
  %3 = load ptr, ptr %2, align 8
  %4 = getelementptr inbounds %"struct.pkpy::LargeNameDict", ptr %3, i32 0, i32 2
  %5 = load i16, ptr %4, align 8
  ret i16 %5
}

; Function Attrs: mustprogress nounwind uwtable
define linkonce_odr noundef zeroext i16 @_ZNK4pkpy13SmallNameDictIPNS_8PyObjectEE4sizeEv(ptr noundef nonnull align 8 dereferenceable(88) %0) #5 comdat align 2 {
  %2 = alloca ptr, align 8
  store ptr %0, ptr %2, align 8
  %3 = load ptr, ptr %2, align 8
  %4 = getelementptr inbounds %"struct.pkpy::SmallNameDict", ptr %3, i32 0, i32 1
  %5 = load i16, ptr %4, align 2
  ret i16 %5
}

; Function Attrs: mustprogress nounwind uwtable
define linkonce_odr noundef zeroext i1 @_ZNK4pkpy12NameDictImplIPNS_8PyObjectEE8is_smallEv(ptr noundef nonnull align 8 dereferenceable(88) %0) #5 comdat align 2 {
  %2 = alloca ptr, align 8
  %3 = alloca ptr, align 8
  store ptr %0, ptr %2, align 8
  %4 = load ptr, ptr %2, align 8
  store ptr %4, ptr %3, align 8
  %5 = load ptr, ptr %3, align 8
  %6 = load i8, ptr %5, align 1
  %7 = trunc i8 %6 to i1
  ret i1 %7
}

; Function Attrs: mustprogress nounwind uwtable
define linkonce_odr noundef nonnull align 8 dereferenceable(88) ptr @_ZN4pkpy8PyObject4attrEv(ptr noundef nonnull align 8 dereferenceable(24) %0) #5 comdat align 2 {
  %2 = alloca ptr, align 8
  store ptr %0, ptr %2, align 8
  %3 = load ptr, ptr %2, align 8
  %4 = getelementptr inbounds %"struct.pkpy::PyObject", ptr %3, i32 0, i32 4
  %5 = load ptr, ptr %4, align 8
  ret ptr %5
}

; Function Attrs: mustprogress nounwind uwtable
define linkonce_odr noundef nonnull align 8 dereferenceable(8) ptr @_ZN4pkpy18_py_cast__internalIRNS_12MappingProxyELb0EEET_PNS_2VMEPNS_8PyObjectE(ptr noundef %0, ptr noundef %1) #5 comdat {
  %3 = alloca ptr, align 8
  %4 = alloca ptr, align 8
  %5 = alloca %"struct.pkpy::Type", align 2
  store ptr %0, ptr %3, align 8
  store ptr %1, ptr %4, align 8
  call void @llvm.memcpy.p0.p0.i64(ptr align 2 %5, ptr align 2 @__const._ZN4pkpy18_py_cast__internalIRNS_12MappingProxyELb0EEET_PNS_2VMEPNS_8PyObjectE.const_type, i64 2, i1 false)
  %6 = load ptr, ptr %4, align 8
  %7 = getelementptr inbounds %"struct.pkpy::Py_.608", ptr %6, i32 0, i32 1
  ret ptr %7
}

; Function Attrs: mustprogress uwtable
define linkonce_odr noundef zeroext i16 @_ZNK4pkpy12NameDictImplIPNS_8PyObjectEE4sizeEv(ptr noundef nonnull align 8 dereferenceable(88) %0) #4 comdat align 2 {
  %2 = alloca ptr, align 8
  store ptr %0, ptr %2, align 8
  %3 = load ptr, ptr %2, align 8
  %4 = call noundef zeroext i1 @_ZNK4pkpy12NameDictImplIPNS_8PyObjectEE8is_smallEv(ptr noundef nonnull align 8 dereferenceable(88) %3)
  br i1 %4, label %5, label %8

5:                                                ; preds = %1
  %6 = getelementptr inbounds %"struct.pkpy::NameDictImpl", ptr %3, i32 0, i32 0
  %7 = call noundef zeroext i16 @_ZNK4pkpy13SmallNameDictIPNS_8PyObjectEE4sizeEv(ptr noundef nonnull align 8 dereferenceable(88) %6)
  br label %11

8:                                                ; preds = %1
  %9 = getelementptr inbounds %"struct.pkpy::NameDictImpl", ptr %3, i32 0, i32 0
  %10 = call noundef zeroext i16 @_ZNK4pkpy13LargeNameDictIPNS_8PyObjectEE4sizeEv(ptr noundef nonnull align 8 dereferenceable(24) %9)
  br label %11

11:                                               ; preds = %8, %5
  %12 = phi i16 [ %7, %5 ], [ %10, %8 ]
  ret i16 %12
}

; Function Attrs: mustprogress nounwind uwtable
define linkonce_odr noundef nonnull align 8 dereferenceable(88) ptr @_ZN4pkpy12MappingProxy4attrEv(ptr noundef nonnull align 8 dereferenceable(8) %0) #5 comdat align 2 {
  %2 = alloca ptr, align 8
  store ptr %0, ptr %2, align 8
  %3 = load ptr, ptr %2, align 8
  %4 = getelementptr inbounds %"struct.pkpy::MappingProxy", ptr %3, i32 0, i32 0
  %5 = load ptr, ptr %4, align 8
  %6 = call noundef nonnull align 8 dereferenceable(88) ptr @_ZN4pkpy8PyObject4attrEv(ptr noundef nonnull align 8 dereferenceable(24) %5)
  ret ptr %6
}

; Function Attrs: mustprogress uwtable
define linkonce_odr noundef nonnull align 8 dereferenceable(8) ptr @_ZN4pkpy8_py_castIRNS_12MappingProxyEEET_PNS_2VMEPNS_8PyObjectE(ptr noundef %0, ptr noundef %1) #4 comdat {
  %3 = alloca ptr, align 8
  %4 = alloca ptr, align 8
  store ptr %0, ptr %3, align 8
  store ptr %1, ptr %4, align 8
  %5 = load ptr, ptr %3, align 8
  %6 = load ptr, ptr %4, align 8
  %7 = call noundef nonnull align 8 dereferenceable(8) ptr @_ZN4pkpy18_py_cast__internalIRNS_12MappingProxyELb0EEET_PNS_2VMEPNS_8PyObjectE(ptr noundef %5, ptr noundef %6)
  ret ptr %7
}

; Function Attrs: mustprogress uwtable
define internal noundef i64 @"_ZZN4pkpy15__init_builtinsEPNS_2VMEENK5$_171clES1_PNS_8PyObjectE"(ptr noundef nonnull align 1 dereferenceable(1) %0, ptr noundef %1, ptr noundef %2) #4 align 2 {
  %4 = alloca ptr, align 8
  %5 = alloca ptr, align 8
  %6 = alloca ptr, align 8
  store ptr %0, ptr %4, align 8
  store ptr %1, ptr %5, align 8
  store ptr %2, ptr %6, align 8
  %7 = load ptr, ptr %5, align 8
  %8 = load ptr, ptr %6, align 8
  %9 = call noundef nonnull align 8 dereferenceable(8) ptr @_ZN4pkpy8_py_castIRNS_12MappingProxyEEET_PNS_2VMEPNS_8PyObjectE(ptr noundef %7, ptr noundef %8)
  %10 = call noundef nonnull align 8 dereferenceable(88) ptr @_ZN4pkpy12MappingProxy4attrEv(ptr noundef nonnull align 8 dereferenceable(8) %9)
  %11 = call noundef zeroext i16 @_ZNK4pkpy12NameDictImplIPNS_8PyObjectEE4sizeEv(ptr noundef nonnull align 8 dereferenceable(88) %10)
  %12 = zext i16 %11 to i64
  ret i64 %12
}

; Function Attrs: mustprogress uwtable
define internal noundef i64 @"_ZZN4pkpy15__init_builtinsEPNS_2VMEEN5$_1718__invokeES1_PNS_8PyObjectE"(ptr noundef %0, ptr noundef %1) #4 align 2 {
  %3 = alloca ptr, align 8
  %4 = alloca ptr, align 8
  %5 = alloca %class.anon.397, align 1
  store ptr %0, ptr %3, align 8
  store ptr %1, ptr %4, align 8
  %6 = load ptr, ptr %3, align 8
  %7 = load ptr, ptr %4, align 8
  %8 = call noundef i64 @"_ZZN4pkpy15__init_builtinsEPNS_2VMEENK5$_171clES1_PNS_8PyObjectE"(ptr noundef nonnull align 1 dereferenceable(1) %5, ptr noundef %6, ptr noundef %7)
  ret i64 %8
}