; Function Attrs: mustprogress nofree norecurse nosync nounwind willreturn memory(read, inaccessiblemem: none) uwtable
define internal noundef range(i64 0, 65536) i64 @"_ZZN4pkpy15__init_builtinsEPNS_2VMEEN5$_1718__invokeES1_PNS_8PyObjectE"(ptr nocapture readnone %0, ptr nocapture noundef readonly %1) #19 align 2 {
  %3 = getelementptr i8, ptr %1, i64 24
  %.val = load ptr, ptr %3, align 8
  %4 = getelementptr i8, ptr %.val, i64 16
  %.val.val = load ptr, ptr %4, align 8
  %5 = load i8, ptr %.val.val, align 1
  %6 = trunc i8 %5 to i1
  %7 = getelementptr inbounds i8, ptr %.val.val, i64 2
  %8 = load i16, ptr %7, align 2
  %9 = getelementptr inbounds i8, ptr %.val.val, i64 8
  %10 = load i16, ptr %9, align 8
  %11 = select i1 %6, i16 %8, i16 %10
  %12 = zext i16 %11 to i64
  ret i64 %12
}